   1              		.cpu arm7tdmi
   2              		.fpu softvfp
   3              		.eabi_attribute 20, 1
   4              		.eabi_attribute 21, 1
   5              		.eabi_attribute 23, 3
   6              		.eabi_attribute 24, 1
   7              		.eabi_attribute 25, 1
   8              		.eabi_attribute 26, 1
   9              		.eabi_attribute 30, 6
  10              		.eabi_attribute 18, 4
  11              		.file	"8led.c"
  21              	.Ltext0:
  22              		.file 1 "../guiada/8led.c"
 1961              		.align	2
 1964              	Symbol:
 1965 0000 12000000 		.word	18
 1966 0004 9F000000 		.word	159
 1967 0008 31000000 		.word	49
 1968 000c 15000000 		.word	21
 1969 0010 9C000000 		.word	156
 1970 0014 54000000 		.word	84
 1971 0018 50000000 		.word	80
 1972 001c 1F000000 		.word	31
 1973 0020 10000000 		.word	16
 1974 0024 1C000000 		.word	28
 1975 0028 18000000 		.word	24
 1976 002c D0000000 		.word	208
 1977 0030 72000000 		.word	114
 1978 0034 91000000 		.word	145
 1979 0038 70000000 		.word	112
 1980 003c 78000000 		.word	120
 1981              		.text
 1982              		.align	2
 1983              		.global	D8Led_init
 1985              	D8Led_init:
 1986              	.LFB0:
   1:../guiada/8led.c **** /*--- ficheros de cabecera ---*/
   2:../guiada/8led.c **** #include "44b.h"
   3:../guiada/8led.c **** #include "44blib.h"
   4:../guiada/8led.c **** /*--- definicion de macros ---*/
   5:../guiada/8led.c **** /* Mapa de bits de cada segmento
   6:../guiada/8led.c **** (valor que se debe escribir para que se ilumine el segmento) */
   7:../guiada/8led.c **** #define SEGMENT_A 0x7F
   8:../guiada/8led.c **** #define SEGMENT_B 0xBF
   9:../guiada/8led.c **** #define SEGMENT_C 0xDF 
  10:../guiada/8led.c **** #define SEGMENT_D 0xF7 
  11:../guiada/8led.c **** #define SEGMENT_E 0xFB 
  12:../guiada/8led.c **** #define SEGMENT_F 0xFD 
  13:../guiada/8led.c **** #define SEGMENT_G 0xFE 
  14:../guiada/8led.c **** #define SEGMENT_P 0xEF 
  15:../guiada/8led.c **** 
  16:../guiada/8led.c **** #define DIGIT_F (SEGMENT_A & SEGMENT_G & SEGMENT_E & SEGMENT_F)
  17:../guiada/8led.c **** #define DIGIT_E (SEGMENT_A & SEGMENT_G & SEGMENT_E & SEGMENT_F & SEGMENT_D)
  18:../guiada/8led.c **** #define DIGIT_D (SEGMENT_B & SEGMENT_C & SEGMENT_D & SEGMENT_F & SEGMENT_E)
  19:../guiada/8led.c **** #define DIGIT_C (SEGMENT_A & SEGMENT_D & SEGMENT_E & SEGMENT_G)
  20:../guiada/8led.c **** #define DIGIT_B (SEGMENT_C & SEGMENT_D & SEGMENT_F & SEGMENT_E & SEGMENT_G)
  21:../guiada/8led.c **** #define DIGIT_A (SEGMENT_A & SEGMENT_B & SEGMENT_C & SEGMENT_F & SEGMENT_E & SEGMENT_G)
  22:../guiada/8led.c **** #define DIGIT_9 (SEGMENT_A & SEGMENT_B & SEGMENT_C & SEGMENT_F & SEGMENT_G)
  23:../guiada/8led.c **** #define DIGIT_0 (SEGMENT_A & SEGMENT_B & SEGMENT_C & SEGMENT_D & SEGMENT_E & SEGMENT_G)
  24:../guiada/8led.c **** #define DIGIT_1 (SEGMENT_B & SEGMENT_C)
  25:../guiada/8led.c **** #define DIGIT_2 (SEGMENT_A & SEGMENT_B & SEGMENT_F & SEGMENT_E & SEGMENT_D)
  26:../guiada/8led.c **** #define DIGIT_3 (SEGMENT_A & SEGMENT_B & SEGMENT_F & SEGMENT_C & SEGMENT_D)
  27:../guiada/8led.c **** #define DIGIT_4 (SEGMENT_B & SEGMENT_C & SEGMENT_F & SEGMENT_G)
  28:../guiada/8led.c **** #define DIGIT_5 (SEGMENT_A & SEGMENT_C & SEGMENT_D & SEGMENT_F & SEGMENT_G)
  29:../guiada/8led.c **** #define DIGIT_6 (SEGMENT_A & SEGMENT_C & SEGMENT_D & SEGMENT_E & SEGMENT_F & SEGMENT_G)
  30:../guiada/8led.c **** #define DIGIT_7 (SEGMENT_A & SEGMENT_B & SEGMENT_C)
  31:../guiada/8led.c **** #define DIGIT_8 (SEGMENT_A & SEGMENT_B & SEGMENT_C & SEGMENT_D & SEGMENT_E & SEGMENT_F & SEGMENT_G)
  32:../guiada/8led.c **** 
  33:../guiada/8led.c **** /*--- variables globales ---*/
  34:../guiada/8led.c **** /* tabla de segmentos */
  35:../guiada/8led.c **** int Symbol[] = {DIGIT_0, DIGIT_1, DIGIT_2, DIGIT_3, DIGIT_4, DIGIT_5,
  36:../guiada/8led.c **** 					DIGIT_6, DIGIT_7, DIGIT_8, DIGIT_9, DIGIT_A, DIGIT_B,
  37:../guiada/8led.c **** 					DIGIT_C, DIGIT_D, DIGIT_E, DIGIT_F};
  38:../guiada/8led.c **** /*--- declaracion de funciones ---*/
  39:../guiada/8led.c **** void D8Led_init(void);
  40:../guiada/8led.c **** void D8Led_symbol(int value);
  41:../guiada/8led.c **** /*--- codigo de las funciones ---*/
  42:../guiada/8led.c **** void D8Led_init(void)
  43:../guiada/8led.c **** {
 1987              		.loc 1 43 0
 1988              		.cfi_startproc
 1989              		@ Function supports interworking.
 1990              		@ args = 0, pretend = 0, frame = 0
 1991              		@ frame_needed = 1, uses_anonymous_args = 0
 1992 0000 0DC0A0E1 		mov	ip, sp
 1993              	.LCFI0:
 1994              		.cfi_def_cfa_register 12
 1995 0004 00D82DE9 		stmfd	sp!, {fp, ip, lr, pc}
 1996 0008 04B04CE2 		sub	fp, ip, #4
 1997              		.cfi_offset 14, -8
 1998              		.cfi_offset 13, -12
 1999              		.cfi_offset 11, -16
 2000              	.LCFI1:
 2001              		.cfi_def_cfa 11, 4
  44:../guiada/8led.c **** /* Estado inicial del display con todos los segmentos iluminados
  45:../guiada/8led.c **** (buscar en los ficheros de cabecera la direccion implicada--->44blib.h) */ 
  46:../guiada/8led.c **** 	LED8ADDR = 0; 
 2002              		.loc 1 46 0
 2003 000c 8537A0E3 		mov	r3, #34865152
 2004 0010 0020A0E3 		mov	r2, #0
 2005 0014 0020C3E5 		strb	r2, [r3, #0]
  47:../guiada/8led.c **** }
 2006              		.loc 1 47 0
 2007 0018 0CD04BE2 		sub	sp, fp, #12
 2008 001c 00689DE8 		ldmfd	sp, {fp, sp, lr}
 2009 0020 1EFF2FE1 		bx	lr
 2010              		.cfi_endproc
 2011              	.LFE0:
 2013              		.align	2
 2014              		.global	D8Led_symbol
 2016              	D8Led_symbol:
 2017              	.LFB1:
  48:../guiada/8led.c **** void D8Led_symbol(int value)
  49:../guiada/8led.c **** {
 2018              		.loc 1 49 0
 2019              		.cfi_startproc
 2020              		@ Function supports interworking.
 2021              		@ args = 0, pretend = 0, frame = 8
 2022              		@ frame_needed = 1, uses_anonymous_args = 0
 2023 0024 0DC0A0E1 		mov	ip, sp
 2024              	.LCFI2:
 2025              		.cfi_def_cfa_register 12
 2026 0028 00D82DE9 		stmfd	sp!, {fp, ip, lr, pc}
 2027 002c 04B04CE2 		sub	fp, ip, #4
 2028              		.cfi_offset 14, -8
 2029              		.cfi_offset 13, -12
 2030              		.cfi_offset 11, -16
 2031              	.LCFI3:
 2032              		.cfi_def_cfa 11, 4
 2033 0030 08D04DE2 		sub	sp, sp, #8
 2034 0034 10000BE5 		str	r0, [fp, #-16]
  50:../guiada/8led.c **** // muestra Symbol[value] en el display
  51:../guiada/8led.c **** 	LED8ADDR=Symbol[value];
 2035              		.loc 1 51 0
 2036 0038 8537A0E3 		mov	r3, #34865152
 2037 003c 18209FE5 		ldr	r2, .L3
 2038 0040 10101BE5 		ldr	r1, [fp, #-16]
 2039 0044 012192E7 		ldr	r2, [r2, r1, asl #2]
 2040 0048 FF2002E2 		and	r2, r2, #255
 2041 004c 0020C3E5 		strb	r2, [r3, #0]
  52:../guiada/8led.c **** }...
 2042              		.loc 1 52 0
 2043 0050 0CD04BE2 		sub	sp, fp, #12
 2044 0054 00689DE8 		ldmfd	sp, {fp, sp, lr}
 2045 0058 1EFF2FE1 		bx	lr
 2046              	.L4:
 2047              		.align	2
 2048              	.L3:
 2049 005c 00000000 		.word	Symbol
 2050              		.cfi_endproc
 2051              	.LFE1:
 2053              	.Letext0: